; Function Attrs: mustprogress nofree norecurse nosync nounwind willreturn memory(read, inaccessiblemem: none) uwtable
define internal fastcc noundef range(i32 0, 2) i32 @_ZN5clang6format12_GLOBAL__N_110LineJoiner25tryMergeSimplePPDirectiveEPKPNS0_13AnnotatedLineES6_j(ptr noundef readonly %0, ptr noundef readnone %1, i32 noundef %2) unnamed_addr #2 align 2 {
  %4 = icmp eq i32 %2, 0
  br i1 %4, label %26, label %5

5:                                                ; preds = %3
  %6 = getelementptr inbounds nuw i8, ptr %0, i64 16
  %.not = icmp eq ptr %6, %1
  br i1 %.not, label %17, label %7

7:                                                ; preds = %5
  %8 = load ptr, ptr %6, align 8
  %9 = getelementptr inbounds nuw i8, ptr %8, i64 64
  %10 = load i8, ptr %9, align 8
  %11 = trunc i8 %10 to i1
  br i1 %11, label %12, label %17

12:                                               ; preds = %7
  %13 = load ptr, ptr %8, align 8
  %14 = getelementptr inbounds nuw i8, ptr %13, i64 64
  %15 = load i8, ptr %14, align 8
  %16 = and i8 %15, 1
  %.not9 = icmp eq i8 %16, 0
  br i1 %.not9, label %26, label %17

17:                                               ; preds = %12, %7, %5
  %18 = getelementptr inbounds nuw i8, ptr %0, i64 8
  %19 = load ptr, ptr %18, align 8
  %20 = getelementptr inbounds nuw i8, ptr %19, i64 8
  %21 = load ptr, ptr %20, align 8
  %22 = getelementptr inbounds nuw i8, ptr %21, i64 108
  %23 = load i32, ptr %22, align 4
  %24 = add i32 %23, 1
  %25 = icmp ule i32 %24, %2
  %. = zext i1 %25 to i32
  br label %26

26:                                               ; preds = %17, %12, %3
  %.0 = phi i32 [ 0, %3 ], [ 0, %12 ], [ %., %17 ]
  ret i32 %.0
}